target datalayout = "e-m:e-p270:32:32-p271:32:32-p272:64:64-i64:64-i128:128-f80:128-n8:16:32:64-S128"
target triple = "x86_64-pc-linux-gnu"

%struct.TileCacheBuildContext = type { ptr, ptr, ptr, ptr }

; Function Attrs: mustprogress uwtable
define internal void @_ZZ10drawDetailP11duDebugDrawP11dtTileCacheiiiEN21TileCacheBuildContext5purgeEv(ptr noundef nonnull align 8 dereferenceable(32) %0) #5 align 2 {
  %2 = alloca ptr, align 8
  store ptr %0, ptr %2, align 8
  %3 = load ptr, ptr %2, align 8
  %4 = getelementptr inbounds %struct.TileCacheBuildContext, ptr %3, i32 0, i32 3
  %5 = load ptr, ptr %4, align 8
  %6 = getelementptr inbounds %struct.TileCacheBuildContext, ptr %3, i32 0, i32 0
  %7 = load ptr, ptr %6, align 8
  call void @_Z20dtFreeTileCacheLayerP16dtTileCacheAllocP16dtTileCacheLayer(ptr noundef %5, ptr noundef %7)
  %8 = getelementptr inbounds %struct.TileCacheBuildContext, ptr %3, i32 0, i32 0
  store ptr null, ptr %8, align 8
  %9 = getelementptr inbounds %struct.TileCacheBuildContext, ptr %3, i32 0, i32 3
  %10 = load ptr, ptr %9, align 8
  %11 = getelementptr inbounds %struct.TileCacheBuildContext, ptr %3, i32 0, i32 1
  %12 = load ptr, ptr %11, align 8
  call void @_Z25dtFreeTileCacheContourSetP16dtTileCacheAllocP21dtTileCacheContourSet(ptr noundef %10, ptr noundef %12)
  %13 = getelementptr inbounds %struct.TileCacheBuildContext, ptr %3, i32 0, i32 1
  store ptr null, ptr %13, align 8
  %14 = getelementptr inbounds %struct.TileCacheBuildContext, ptr %3, i32 0, i32 3
  %15 = load ptr, ptr %14, align 8
  %16 = getelementptr inbounds %struct.TileCacheBuildContext, ptr %3, i32 0, i32 2
  %17 = load ptr, ptr %16, align 8
  call void @_Z23dtFreeTileCachePolyMeshP16dtTileCacheAllocP19dtTileCachePolyMesh(ptr noundef %15, ptr noundef %17)
  %18 = getelementptr inbounds %struct.TileCacheBuildContext, ptr %3, i32 0, i32 2
  store ptr null, ptr %18, align 8
  ret void
}

; Function Attrs: mustprogress nounwind uwtable
define internal void @_ZZ10drawDetailP11duDebugDrawP11dtTileCacheiiiEN21TileCacheBuildContextD2Ev(ptr noundef nonnull align 8 dereferenceable(32) %0) unnamed_addr #0 align 2 personality ptr @__gxx_personality_v0 {
  %2 = alloca ptr, align 8
  store ptr %0, ptr %2, align 8
  %3 = load ptr, ptr %2, align 8
  invoke void @_ZZ10drawDetailP11duDebugDrawP11dtTileCacheiiiEN21TileCacheBuildContext5purgeEv(ptr noundef nonnull align 8 dereferenceable(32) %3)
          to label %4 unwind label %5

4:                                                ; preds = %1
  ret void

5:                                                ; preds = %1
  %6 = landingpad { ptr, i32 }
          catch ptr null
  %7 = extractvalue { ptr, i32 } %6, 0
  call void @__clang_call_terminate(ptr %7) #12
  unreachable
}