; Function Attrs: mustprogress nounwind uwtable
define internal fastcc void @_ZZ10drawDetailP11duDebugDrawP11dtTileCacheiiiEN21TileCacheBuildContextD2Ev(ptr nocapture noundef nonnull align 8 dereferenceable(32) %0) unnamed_addr #0 align 2 personality ptr @__gxx_personality_v0 {
  %2 = getelementptr inbounds i8, ptr %0, i64 24
  %3 = load ptr, ptr %2, align 8
  %4 = load ptr, ptr %0, align 8
  invoke void @_Z20dtFreeTileCacheLayerP16dtTileCacheAllocP16dtTileCacheLayer(ptr noundef %3, ptr noundef %4)
          to label %.noexc unwind label %12

.noexc:                                           ; preds = %1
  store ptr null, ptr %0, align 8
  %5 = load ptr, ptr %2, align 8
  %6 = getelementptr inbounds i8, ptr %0, i64 8
  %7 = load ptr, ptr %6, align 8
  invoke void @_Z25dtFreeTileCacheContourSetP16dtTileCacheAllocP21dtTileCacheContourSet(ptr noundef %5, ptr noundef %7)
          to label %.noexc1 unwind label %12

.noexc1:                                          ; preds = %.noexc
  store ptr null, ptr %6, align 8
  %8 = load ptr, ptr %2, align 8
  %9 = getelementptr inbounds i8, ptr %0, i64 16
  %10 = load ptr, ptr %9, align 8
  invoke void @_Z23dtFreeTileCachePolyMeshP16dtTileCacheAllocP19dtTileCachePolyMesh(ptr noundef %8, ptr noundef %10)
          to label %11 unwind label %12

11:                                               ; preds = %.noexc1
  store ptr null, ptr %9, align 8
  ret void

12:                                               ; preds = %.noexc1, %.noexc, %1
  %13 = landingpad { ptr, i32 }
          catch ptr null
  %14 = extractvalue { ptr, i32 } %13, 0
  tail call void @__clang_call_terminate(ptr %14) #16
  unreachable
}